; Function Attrs: mustprogress uwtable
define void @_ZNK6icu_756number15FormattedNumber13getOutputUnitER10UErrorCode(ptr noalias sret(%"class.icu_75::MeasureUnit") align 8 %agg.result, ptr nocapture noundef nonnull readonly align 8 dereferenceable(20) %this, ptr nocapture noundef nonnull align 4 dereferenceable(4) %status) local_unnamed_addr #1 align 2 {
entry:
  %0 = load i32, ptr %status, align 4
  %cmp.i = icmp slt i32 %0, 1
  br i1 %cmp.i, label %if.end, label %if.then

if.then:                                          ; preds = %entry
  tail call void @_ZN6icu_7511MeasureUnitC1Ev(ptr noundef nonnull align 8 dereferenceable(19) %agg.result)
  br label %return

if.end:                                           ; preds = %entry
  %fData = getelementptr inbounds i8, ptr %this, i64 8
  %1 = load ptr, ptr %fData, align 8
  %cmp = icmp eq ptr %1, null
  br i1 %cmp, label %if.then2, label %if.end3

if.then2:                                         ; preds = %if.end
  %fErrorCode = getelementptr inbounds i8, ptr %this, i64 16
  %2 = load i32, ptr %fErrorCode, align 8
  store i32 %2, ptr %status, align 4
  tail call void @_ZN6icu_7511MeasureUnitC1Ev(ptr noundef nonnull align 8 dereferenceable(19) %agg.result)
  br label %return

if.end3:                                          ; preds = %if.end
  %outputUnit = getelementptr inbounds i8, ptr %1, i64 376
  tail call void @_ZN6icu_7511MeasureUnitC1ERKS0_(ptr noundef nonnull align 8 dereferenceable(19) %agg.result, ptr noundef nonnull align 8 dereferenceable(19) %outputUnit)
  br label %return

return:                                           ; preds = %if.end3, %if.then2, %if.then
  ret void
}